; ModuleID = '54/979.c'
source_filename = "54/979.c"
target datalayout = "e-m:e-p270:32:32-p271:32:32-p272:64:64-i64:64-f80:128-n8:16:32:64-S128"
target triple = "x86_64-pc-linux-gnu"

@.str = private unnamed_addr constant [5 x i8] c"%d%d\00", align 1
@.str.1 = private unnamed_addr constant [4 x i8] c"%d\0A\00", align 1

; Function Attrs: noinline nounwind uwtable
define dso_local i32 @f(i32 %0, i32 %1) #0 {
  %3 = alloca i32, align 4
  %4 = alloca i32, align 4
  %5 = alloca i32, align 4
  %6 = alloca [100 x i32], align 16
  %7 = alloca i32, align 4
  store i32 %0, i32* %3, align 4
  store i32 %1, i32* %4, align 4
  store i32 1, i32* %7, align 4
  %8 = load i32, i32* %3, align 4
  %9 = load i32, i32* %4, align 4
  %10 = add nsw i32 %8, %9
  %11 = getelementptr inbounds [100 x i32], [100 x i32]* %6, i64 0, i64 0
  store i32 %10, i32* %11, align 16
  store i32 1, i32* %5, align 4
  br label %12

12:                                               ; preds = %53, %2
  %13 = load i32, i32* %5, align 4
  %14 = load i32, i32* %3, align 4
  %15 = icmp slt i32 %13, %14
  br i1 %15, label %16, label %56

16:                                               ; preds = %12
  %17 = load i32, i32* %3, align 4
  %18 = load i32, i32* %5, align 4
  %19 = sub nsw i32 %18, 1
  %20 = sext i32 %19 to i64
  %21 = getelementptr inbounds [100 x i32], [100 x i32]* %6, i64 0, i64 %20
  %22 = load i32, i32* %21, align 4
  %23 = mul nsw i32 %17, %22
  %24 = load i32, i32* %3, align 4
  %25 = sub nsw i32 %24, 1
  %26 = sdiv i32 %23, %25
  %27 = load i32, i32* %4, align 4
  %28 = add nsw i32 %26, %27
  %29 = load i32, i32* %5, align 4
  %30 = sext i32 %29 to i64
  %31 = getelementptr inbounds [100 x i32], [100 x i32]* %6, i64 0, i64 %30
  store i32 %28, i32* %31, align 4
  %32 = load i32, i32* %3, align 4
  %33 = load i32, i32* %5, align 4
  %34 = sub nsw i32 %33, 1
  %35 = sext i32 %34 to i64
  %36 = getelementptr inbounds [100 x i32], [100 x i32]* %6, i64 0, i64 %35
  %37 = load i32, i32* %36, align 4
  %38 = mul nsw i32 %32, %37
  %39 = load i32, i32* %3, align 4
  %40 = sub nsw i32 %39, 1
  %41 = srem i32 %38, %40
  %42 = icmp ne i32 %41, 0
  br i1 %42, label %43, label %52

43:                                               ; preds = %16
  %44 = load i32, i32* %7, align 4
  %45 = add nsw i32 %44, 1
  store i32 %45, i32* %7, align 4
  %46 = load i32, i32* %7, align 4
  %47 = load i32, i32* %3, align 4
  %48 = mul nsw i32 %46, %47
  %49 = load i32, i32* %4, align 4
  %50 = add nsw i32 %48, %49
  %51 = getelementptr inbounds [100 x i32], [100 x i32]* %6, i64 0, i64 0
  store i32 %50, i32* %51, align 16
  store i32 0, i32* %5, align 4
  br label %52

52:                                               ; preds = %43, %16
  br label %53

53:                                               ; preds = %52
  %54 = load i32, i32* %5, align 4
  %55 = add nsw i32 %54, 1
  store i32 %55, i32* %5, align 4
  br label %12

56:                                               ; preds = %12
  %57 = load i32, i32* %3, align 4
  %58 = sub nsw i32 %57, 1
  %59 = sext i32 %58 to i64
  %60 = getelementptr inbounds [100 x i32], [100 x i32]* %6, i64 0, i64 %59
  %61 = load i32, i32* %60, align 4
  ret i32 %61
}

; Function Attrs: noinline nounwind uwtable
define dso_local i32 @main() #0 {
  %1 = alloca i32, align 4
  %2 = alloca i32, align 4
  %3 = alloca i32, align 4
  store i32 0, i32* %1, align 4
  %4 = call i32 (i8*, ...) @__isoc99_scanf(i8* getelementptr inbounds ([5 x i8], [5 x i8]* @.str, i64 0, i64 0), i32* %2, i32* %3)
  %5 = load i32, i32* %2, align 4
  %6 = load i32, i32* %3, align 4
  %7 = call i32 @f(i32 %5, i32 %6)
  %8 = call i32 (i8*, ...) @printf(i8* getelementptr inbounds ([4 x i8], [4 x i8]* @.str.1, i64 0, i64 0), i32 %7)
  ret i32 0
}

declare dso_local i32 @__isoc99_scanf(i8*, ...) #1

declare dso_local i32 @printf(i8*, ...) #1


!llvm.module.flags = !{!0}
!llvm.ident = !{!1}

!0 = !{i32 1, !"wchar_size", i32 4}
!1 = !{!"clang version 10.0.0-4ubuntu1 "}
